---
triple:          'arm64-apple-darwin'
binary-path:     fprog-project
relocations:
  - { offsetInCU: 0x44, offset: 0x44, size: 0x8, addend: 0x0, symName: __ZN6ranges4sortE, symObjAddr: 0x3A24, symBinAddr: 0x100007D54, symSize: 0x0 }
  - { offsetInCU: 0x126, offset: 0x126, size: 0x8, addend: 0x0, symName: __ZN6ranges4nextE, symObjAddr: 0x3A27, symBinAddr: 0x100007D57, symSize: 0x0 }
  - { offsetInCU: 0x1C0, offset: 0x1C0, size: 0x8, addend: 0x0, symName: __ZN6ranges7advanceE, symObjAddr: 0x3A28, symBinAddr: 0x100007D58, symSize: 0x0 }
  - { offsetInCU: 0x220, offset: 0x220, size: 0x8, addend: 0x0, symName: __ZN6ranges12partial_sortE, symObjAddr: 0x3A29, symBinAddr: 0x100007D59, symSize: 0x0 }
  - { offsetInCU: 0x2B2, offset: 0x2B2, size: 0x8, addend: 0x0, symName: __ZN6ranges9make_heapE, symObjAddr: 0x3A2A, symBinAddr: 0x100007D5A, symSize: 0x0 }
  - { offsetInCU: 0x341, offset: 0x341, size: 0x8, addend: 0x0, symName: __ZN6ranges8distanceE, symObjAddr: 0x3A30, symBinAddr: 0x100007D60, symSize: 0x0 }
  - { offsetInCU: 0x3F1, offset: 0x3F1, size: 0x8, addend: 0x0, symName: __ZN6ranges3refE, symObjAddr: 0x3A2B, symBinAddr: 0x100007D5B, symSize: 0x0 }
  - { offsetInCU: 0x4A0, offset: 0x4A0, size: 0x8, addend: 0x0, symName: __ZN6ranges6invokeE, symObjAddr: 0x3A2C, symBinAddr: 0x100007D5C, symSize: 0x0 }
  - { offsetInCU: 0x619, offset: 0x619, size: 0x8, addend: 0x0, symName: __ZN6ranges1_9iter_swapE, symObjAddr: 0x3A2D, symBinAddr: 0x100007D5D, symSize: 0x0 }
  - { offsetInCU: 0x632, offset: 0x632, size: 0x8, addend: 0x0, symName: __ZN6ranges1_4swapE, symObjAddr: 0x3A31, symBinAddr: 0x100007D61, symSize: 0x0 }
  - { offsetInCU: 0x64B, offset: 0x64B, size: 0x8, addend: 0x0, symName: __ZN6ranges1_9iter_moveE, symObjAddr: 0x3A32, symBinAddr: 0x100007D62, symSize: 0x0 }
  - { offsetInCU: 0x664, offset: 0x664, size: 0x8, addend: 0x0, symName: __ZN6ranges1_5beginE, symObjAddr: 0x3A25, symBinAddr: 0x100007D55, symSize: 0x0 }
  - { offsetInCU: 0x67E, offset: 0x67E, size: 0x8, addend: 0x0, symName: __ZN6ranges1_3endE, symObjAddr: 0x3A26, symBinAddr: 0x100007D56, symSize: 0x0 }
  - { offsetInCU: 0x74B, offset: 0x74B, size: 0x8, addend: 0x0, symName: __ZN6ranges6detail11sift_down_nE, symObjAddr: 0x3A2E, symBinAddr: 0x100007D5E, symSize: 0x0 }
  - { offsetInCU: 0x7B4, offset: 0x7B4, size: 0x8, addend: 0x0, symName: __ZN6ranges6detail10pop_heap_nE, symObjAddr: 0x3A34, symBinAddr: 0x100007D64, symSize: 0x0 }
  - { offsetInCU: 0x877, offset: 0x877, size: 0x8, addend: 0x0, symName: __ZN6ranges6detail14introsort_loopINSt3__111__wrap_iterIPiEElNS_4lessENS_8identityEEEvT_S8_T0_RT1_RT2_, symObjAddr: 0x374, symBinAddr: 0x1000043A4, symSize: 0x12C }
  - { offsetInCU: 0x917, offset: 0x917, size: 0x8, addend: 0x0, symName: __ZN6ranges6detail4log2IlEET_S2_, symObjAddr: 0x4A0, symBinAddr: 0x1000044D0, symSize: 0x50 }
  - { offsetInCU: 0x95A, offset: 0x95A, size: 0x8, addend: 0x0, symName: __ZN6ranges6detail20final_insertion_sortINSt3__111__wrap_iterIPiEENS_4lessENS_8identityEEEvT_S8_RT0_RT1_, symObjAddr: 0x538, symBinAddr: 0x100004568, symSize: 0xFC }
  - { offsetInCU: 0x9C7, offset: 0x9C7, size: 0x8, addend: 0x0, symName: __ZN6ranges6detail19introsort_thresholdEv, symObjAddr: 0x6B8, symBinAddr: 0x1000046E8, symSize: 0x8 }
  - { offsetInCU: 0x9E4, offset: 0x9E4, size: 0x8, addend: 0x0, symName: __ZN6ranges6detail19unguarded_partitionINSt3__111__wrap_iterIPiEENS_4lessENS_8identityEEET_S8_S8_RT0_RT1_, symObjAddr: 0x960, symBinAddr: 0x100004990, symSize: 0x3A8 }
  - { offsetInCU: 0xBFE, offset: 0xBFE, size: 0x8, addend: 0x0, symName: __ZN6ranges6detail14insertion_sortINSt3__111__wrap_iterIPiEENS_4lessENS_8identityEEEvT_S8_RT0_RT1_, symObjAddr: 0x1C1C, symBinAddr: 0x100005C4C, symSize: 0xB0 }
  - { offsetInCU: 0xC87, offset: 0xC87, size: 0x8, addend: 0x0, symName: __ZN6ranges6detail24unguarded_insertion_sortINSt3__111__wrap_iterIPiEENS_4lessENS_8identityEEEvT_S8_RT0_RT1_, symObjAddr: 0x1CCC, symBinAddr: 0x100005CFC, symSize: 0x84 }
  - { offsetInCU: 0xD10, offset: 0xD10, size: 0x8, addend: 0x0, symName: __ZN6ranges6detail13linear_insertINSt3__111__wrap_iterIPiEENS_4lessENS_8identityEEEvT_S8_RT0_RT1_, symObjAddr: 0x1D88, symBinAddr: 0x100005DB8, symSize: 0x140 }
  - { offsetInCU: 0xDBF, offset: 0xDBF, size: 0x8, addend: 0x0, symName: __ZN6ranges6detail23unguarded_linear_insertINSt3__111__wrap_iterIPiEENS_4lessENS_8identityEEEvT_NS_26indirectly_readable_traitsINS2_9remove_cvINS2_16remove_referenceIS8_E4typeEE4typeEE10value_typeERT0_RT1_, symObjAddr: 0x1F88, symBinAddr: 0x100005FB8, symSize: 0x108 }
  - { offsetInCU: 0xEB8, offset: 0xEB8, size: 0x8, addend: 0x0, symName: __ZN6ranges3aux4moveE, symObjAddr: 0x3A33, symBinAddr: 0x100007D63, symSize: 0x0 }
  - { offsetInCU: 0xF10, offset: 0xF10, size: 0x8, addend: 0x0, symName: __ZN6ranges9sort_heapE, symObjAddr: 0x3A2F, symBinAddr: 0x100007D5F, symSize: 0x0 }
  - { offsetInCU: 0xF9F, offset: 0xF9F, size: 0x8, addend: 0x0, symName: __ZN6ranges4prevE, symObjAddr: 0x3A35, symBinAddr: 0x100007D65, symSize: 0x0 }
  - { offsetInCU: 0xFF7, offset: 0xFF7, size: 0x8, addend: 0x0, symName: __ZN6ranges13move_backwardE, symObjAddr: 0x3A36, symBinAddr: 0x100007D66, symSize: 0x0 }
  - { offsetInCU: 0x2681, offset: 0x2681, size: 0x8, addend: 0x0, symName: __ZN8concepts8exchangeIiiEEN4meta6detail4_if_INS1_4listIJNSt3__117integral_constantIbXaasr3std21is_move_constructibleIT_EE5valuesr3std13is_assignableIRS7_T0_EE5valueEEES7_EEEbE4typeES8_OS9_, symObjAddr: 0x17EC, symBinAddr: 0x10000581C, symSize: 0x34 }
  - { offsetInCU: 0x7081, offset: 0x7081, size: 0x8, addend: 0x0, symName: __ZNSt3__1neB7v160006IPiEEbRKNS_11__wrap_iterIT_EES6_, symObjAddr: 0x340, symBinAddr: 0x100004370, symSize: 0x34 }
  - { offsetInCU: 0x70C4, offset: 0x70C4, size: 0x8, addend: 0x0, symName: __ZNSt3__1miB7v160006IPiS1_EEDTmicldtfp_4baseEcldtfp0_4baseEERKNS_11__wrap_iterIT_EERKNS3_IT0_EE, symObjAddr: 0x4F0, symBinAddr: 0x100004520, symSize: 0x48 }
  - { offsetInCU: 0x7110, offset: 0x7110, size: 0x8, addend: 0x0, symName: __ZNSt3__1eqB7v160006IPiEEbRKNS_11__wrap_iterIT_EES6_, symObjAddr: 0x658, symBinAddr: 0x100004688, symSize: 0x48 }
  - { offsetInCU: 0x7153, offset: 0x7153, size: 0x8, addend: 0x0, symName: __ZNSt3__13refB7v160006IN6ranges4lessEEENS_17reference_wrapperIT_EERS4_, symObjAddr: 0x908, symBinAddr: 0x100004938, symSize: 0x2C }
  - { offsetInCU: 0x7188, offset: 0x7188, size: 0x8, addend: 0x0, symName: __ZNSt3__13refB7v160006IN6ranges8identityEEENS_17reference_wrapperIT_EERS4_, symObjAddr: 0x934, symBinAddr: 0x100004964, symSize: 0x2C }
  - { offsetInCU: 0x71E1, offset: 0x71E1, size: 0x8, addend: 0x0, symName: __ZNSt3__18__invokeB7v160006IRN6ranges4lessEJRiS4_EEEDTclclsr3stdE7declvalIT_EEspclsr3stdE7declvalIT0_EEEEOS5_DpOS6_, symObjAddr: 0x16D4, symBinAddr: 0x100005704, symSize: 0x38 }
  - { offsetInCU: 0x726A, offset: 0x726A, size: 0x8, addend: 0x0, symName: __ZNSt3__18__invokeB7v160006IRN6ranges8identityEJRiEEEDTclclsr3stdE7declvalIT_EEspclsr3stdE7declvalIT0_EEEEOS5_DpOS6_, symObjAddr: 0x1770, symBinAddr: 0x1000057A0, symSize: 0x2C }
  - { offsetInCU: 0x72D7, offset: 0x72D7, size: 0x8, addend: 0x0, symName: __ZNSt3__1ltB7v160006IPiEEbRKNS_11__wrap_iterIT_EES6_, symObjAddr: 0x1BD4, symBinAddr: 0x100005C04, symSize: 0x48 }
  - { offsetInCU: 0x731A, offset: 0x731A, size: 0x8, addend: 0x0, symName: __ZNSt3__122__make_exception_guardB7v160006INS_6vectorIiNS_9allocatorIiEEE16__destroy_vectorEEENS_28__exception_guard_exceptionsIT_EES7_, symObjAddr: 0x22E4, symBinAddr: 0x100006314, symSize: 0x40 }
  - { offsetInCU: 0x734F, offset: 0x734F, size: 0x8, addend: 0x0, symName: __ZNSt3__119__debug_db_insert_cB7v160006INS_6vectorIiNS_9allocatorIiEEEEEEvPT_, symObjAddr: 0x2358, symBinAddr: 0x100006388, symSize: 0x10 }
  - { offsetInCU: 0x7380, offset: 0x7380, size: 0x8, addend: 0x0, symName: __ZNSt3__119__allocate_at_leastB7v160006INS_9allocatorIiEEEENS_19__allocation_resultINS_16allocator_traitsIT_E7pointerEEERS5_m, symObjAddr: 0x26F4, symBinAddr: 0x100006724, symSize: 0x40 }
  - { offsetInCU: 0x73C3, offset: 0x73C3, size: 0x8, addend: 0x0, symName: __ZNSt3__13minB7v160006ImEERKT_S3_S3_, symObjAddr: 0x2830, symBinAddr: 0x100006860, symSize: 0x2C }
  - { offsetInCU: 0x75F0, offset: 0x75F0, size: 0x8, addend: 0x0, symName: __ZNSt3__13minB7v160006ImNS_6__lessImmEEEERKT_S5_S5_T0_, symObjAddr: 0x28C8, symBinAddr: 0x1000068F8, symSize: 0x54 }
  - { offsetInCU: 0x7685, offset: 0x7685, size: 0x8, addend: 0x0, symName: __ZNSt3__120__throw_length_errorB7v160006EPKc, symObjAddr: 0x29A4, symBinAddr: 0x1000069D4, symSize: 0x64 }
  - { offsetInCU: 0x76AD, offset: 0x76AD, size: 0x8, addend: 0x0, symName: __ZNSt3__117__libcpp_allocateB7v160006Emm, symObjAddr: 0x2B14, symBinAddr: 0x100006B44, symSize: 0x60 }
  - { offsetInCU: 0x7707, offset: 0x7707, size: 0x8, addend: 0x0, symName: __ZNSt3__124__is_overaligned_for_newB7v160006Em, symObjAddr: 0x2B74, symBinAddr: 0x100006BA4, symSize: 0x20 }
  - { offsetInCU: 0x7735, offset: 0x7735, size: 0x8, addend: 0x0, symName: __ZNSt3__121__libcpp_operator_newB7v160006IJmSt11align_val_tEEEPvDpT_, symObjAddr: 0x2B94, symBinAddr: 0x100006BC4, symSize: 0x2C }
  - { offsetInCU: 0x7782, offset: 0x7782, size: 0x8, addend: 0x0, symName: __ZNSt3__121__libcpp_operator_newB7v160006IJmEEEPvDpT_, symObjAddr: 0x2BC0, symBinAddr: 0x100006BF0, symSize: 0x24 }
  - { offsetInCU: 0x77BB, offset: 0x77BB, size: 0x8, addend: 0x0, symName: __ZNSt3__112__to_addressB7v160006IiEEPT_S2_, symObjAddr: 0x2CDC, symBinAddr: 0x100006D0C, symSize: 0x14 }
  - { offsetInCU: 0x77F0, offset: 0x77F0, size: 0x8, addend: 0x0, symName: __ZNSt3__130__uninitialized_allocator_copyB7v160006INS_9allocatorIiEEiiLPv0EEEPT0_RT_PKS4_S9_S5_, symObjAddr: 0x2D8C, symBinAddr: 0x100006DBC, symSize: 0x38 }
  - { offsetInCU: 0x7868, offset: 0x7868, size: 0x8, addend: 0x0, symName: __ZNSt3__14copyB7v160006IPKiPiEET0_T_S5_S4_, symObjAddr: 0x2E34, symBinAddr: 0x100006E64, symSize: 0x40 }
  - { offsetInCU: 0x78C2, offset: 0x78C2, size: 0x8, addend: 0x0, symName: __ZNSt3__16__copyB7v160006INS_17_ClassicAlgPolicyEPKiS3_PiEENS_4pairIT0_T2_EES6_T1_S7_, symObjAddr: 0x2E74, symBinAddr: 0x100006EA4, symSize: 0x44 }
  - { offsetInCU: 0x792E, offset: 0x792E, size: 0x8, addend: 0x0, symName: __ZNSt3__123__dispatch_copy_or_moveB7v160006INS_17_ClassicAlgPolicyENS_11__copy_loopIS1_EENS_14__copy_trivialEPKiS6_PiEENS_4pairIT2_T4_EES9_T3_SA_, symObjAddr: 0x2EB8, symBinAddr: 0x100006EE8, symSize: 0x44 }
  - { offsetInCU: 0x79AC, offset: 0x79AC, size: 0x8, addend: 0x0, symName: __ZNSt3__121__unwrap_and_dispatchB7v160006INS_10__overloadINS_11__copy_loopINS_17_ClassicAlgPolicyEEENS_14__copy_trivialEEEPKiS8_PiLi0EEENS_4pairIT0_T2_EESB_T1_SC_, symObjAddr: 0x2EFC, symBinAddr: 0x100006F2C, symSize: 0xB4 }
  - { offsetInCU: 0x7A3A, offset: 0x7A3A, size: 0x8, addend: 0x0, symName: __ZNSt3__114__unwrap_rangeB7v160006IPKiS2_EENS_4pairIT0_S4_EET_S6_, symObjAddr: 0x2FB0, symBinAddr: 0x100006FE0, symSize: 0x60 }
  - { offsetInCU: 0x7BCF, offset: 0x7BCF, size: 0x8, addend: 0x0, symName: __ZNSt3__113__unwrap_iterB7v160006IPiNS_18__unwrap_iter_implIS1_Lb1EEELi0EEEDTclsrT0_8__unwrapclsr3stdE7declvalIT_EEEES5_, symObjAddr: 0x3058, symBinAddr: 0x100007088, symSize: 0x24 }
  - { offsetInCU: 0x7C13, offset: 0x7C13, size: 0x8, addend: 0x0, symName: __ZNSt3__19make_pairB7v160006IPKiPiEENS_4pairINS_18__unwrap_ref_decayIT_E4typeENS5_IT0_E4typeEEEOS6_OS9_, symObjAddr: 0x307C, symBinAddr: 0x1000070AC, symSize: 0x38 }
  - { offsetInCU: 0x7C62, offset: 0x7C62, size: 0x8, addend: 0x0, symName: __ZNSt3__114__rewrap_rangeB7v160006IPKiS2_EET_S3_T0_, symObjAddr: 0x30B4, symBinAddr: 0x1000070E4, symSize: 0x2C }
  - { offsetInCU: 0x7CAE, offset: 0x7CAE, size: 0x8, addend: 0x0, symName: __ZNSt3__113__rewrap_iterB7v160006IPiS1_NS_18__unwrap_iter_implIS1_Lb1EEEEET_S4_T0_, symObjAddr: 0x30E0, symBinAddr: 0x100007110, symSize: 0x3C }
  - { offsetInCU: 0x7D03, offset: 0x7D03, size: 0x8, addend: 0x0, symName: __ZNSt3__19make_pairB7v160006IPKiS2_EENS_4pairINS_18__unwrap_ref_decayIT_E4typeENS4_IT0_E4typeEEEOS5_OS8_, symObjAddr: 0x311C, symBinAddr: 0x10000714C, symSize: 0x38 }
  - { offsetInCU: 0x7D52, offset: 0x7D52, size: 0x8, addend: 0x0, symName: __ZNSt3__113__unwrap_iterB7v160006IPKiNS_18__unwrap_iter_implIS2_Lb1EEELi0EEEDTclsrT0_8__unwrapclsr3stdE7declvalIT_EEEES6_, symObjAddr: 0x3154, symBinAddr: 0x100007184, symSize: 0x24 }
  - { offsetInCU: 0x7EBD, offset: 0x7EBD, size: 0x8, addend: 0x0, symName: __ZNSt3__112__to_addressB7v160006IKiEEPT_S3_, symObjAddr: 0x320C, symBinAddr: 0x10000723C, symSize: 0x14 }
  - { offsetInCU: 0x7EF2, offset: 0x7EF2, size: 0x8, addend: 0x0, symName: __ZNSt3__119__copy_trivial_implB7v160006IKiiEENS_4pairIPT_PT0_EES4_S4_S6_, symObjAddr: 0x3220, symBinAddr: 0x100007250, symSize: 0x84 }
  - { offsetInCU: 0x7F5A, offset: 0x7F5A, size: 0x8, addend: 0x0, symName: __ZNSt3__19make_pairB7v160006IRPKiPiEENS_4pairINS_18__unwrap_ref_decayIT_E4typeENS6_IT0_E4typeEEEOS7_OSA_, symObjAddr: 0x32A4, symBinAddr: 0x1000072D4, symSize: 0x38 }
  - { offsetInCU: 0x7FFC, offset: 0x7FFC, size: 0x8, addend: 0x0, symName: __ZNSt3__113__rewrap_iterB7v160006IPKiS2_NS_18__unwrap_iter_implIS2_Lb1EEEEET_S5_T0_, symObjAddr: 0x33E0, symBinAddr: 0x100007410, symSize: 0x3C }
  - { offsetInCU: 0x8051, offset: 0x8051, size: 0x8, addend: 0x0, symName: __ZNSt3__118__debug_db_erase_cB7v160006INS_6vectorIiNS_9allocatorIiEEEEEEvPT_, symObjAddr: 0x3680, symBinAddr: 0x1000076B0, symSize: 0x10 }
  - { offsetInCU: 0x8082, offset: 0x8082, size: 0x8, addend: 0x0, symName: __ZNSt3__119__libcpp_deallocateB7v160006EPvmm, symObjAddr: 0x3820, symBinAddr: 0x100007850, symSize: 0x60 }
  - { offsetInCU: 0x80E7, offset: 0x80E7, size: 0x8, addend: 0x0, symName: __ZNSt3__127__do_deallocate_handle_sizeB7v160006IJSt11align_val_tEEEvPvmDpT_, symObjAddr: 0x3880, symBinAddr: 0x1000078B0, symSize: 0x30 }
  - { offsetInCU: 0x813A, offset: 0x813A, size: 0x8, addend: 0x0, symName: __ZNSt3__127__do_deallocate_handle_sizeB7v160006IJEEEvPvmDpT_, symObjAddr: 0x38B0, symBinAddr: 0x1000078E0, symSize: 0x28 }
  - { offsetInCU: 0x8178, offset: 0x8178, size: 0x8, addend: 0x0, symName: __ZNSt3__124__libcpp_operator_deleteB7v160006IJPvSt11align_val_tEEEvDpT_, symObjAddr: 0x38D8, symBinAddr: 0x100007908, symSize: 0x2C }
  - { offsetInCU: 0x81C1, offset: 0x81C1, size: 0x8, addend: 0x0, symName: __ZNSt3__124__libcpp_operator_deleteB7v160006IJPvEEEvDpT_, symObjAddr: 0x3904, symBinAddr: 0x100007934, symSize: 0x24 }
  - { offsetInCU: 0x8534, offset: 0x8534, size: 0x8, addend: 0x0, symName: __ZSt28__throw_bad_array_new_lengthB7v160006v, symObjAddr: 0x2AE0, symBinAddr: 0x100006B10, symSize: 0x34 }
  - { offsetInCU: 0xAD30, offset: 0xAD30, size: 0x8, addend: 0x0, symName: _main, symObjAddr: 0x0, symBinAddr: 0x100004030, symSize: 0xE4 }
  - { offsetInCU: 0xAD76, offset: 0xAD76, size: 0x8, addend: 0x0, symName: __ZNSt3__16vectorIiNS_9allocatorIiEEEC1B7v160006ESt16initializer_listIiE, symObjAddr: 0xE4, symBinAddr: 0x100004114, symSize: 0x3C }
  - { offsetInCU: 0xADB6, offset: 0xADB6, size: 0x8, addend: 0x0, symName: __ZNK6ranges7sort_fnclIRNSt3__16vectorIiNS2_9allocatorIiEEEENS_4lessENS_8identityELb1ELi0ELi0EEEN4meta6detail5_condIXsr6detailE15_borrowed_rangeIT_EEE6invokeIDTclL_ZNS_1_5beginEEclscPDoFRSD_vELDnEEEENS_8danglingEEEOSD_T0_T1_, symObjAddr: 0x120, symBinAddr: 0x100004150, symSize: 0x6C }
  - { offsetInCU: 0xAE37, offset: 0xAE37, size: 0x8, addend: 0x0, symName: __ZNSt3__16vectorIiNS_9allocatorIiEEED1B7v160006Ev, symObjAddr: 0x18C, symBinAddr: 0x1000041BC, symSize: 0x2C }
  - { offsetInCU: 0xAE61, offset: 0xAE61, size: 0x8, addend: 0x0, symName: __ZNK6ranges7sort_fnclINSt3__111__wrap_iterIPiEES5_NS_4lessENS_8identityELb1ELi0ELi0ELi0EEET_S8_T0_T1_T2_, symObjAddr: 0x1B8, symBinAddr: 0x1000041E8, symSize: 0xD8 }
  - { offsetInCU: 0xAF12, offset: 0xAF12, size: 0x8, addend: 0x0, symName: __ZNK6ranges7_begin_2fnclIRNSt3__16vectorIiNS3_9allocatorIiEEEELb1ELi0ELi0EEEN4meta6detail5_condIX16has_member_beginIT_EEE6invokeINS1_15_member_result_ENS1_19_non_member_result_EE6invokeISC_EEOSC_, symObjAddr: 0x290, symBinAddr: 0x1000042C0, symSize: 0x30 }
  - { offsetInCU: 0xAF6A, offset: 0xAF6A, size: 0x8, addend: 0x0, symName: __ZNK6ranges5_end_2fnclIRNSt3__16vectorIiNS3_9allocatorIiEEEELb1ELi0ELi0EEEN4meta6detail5_condIX14has_member_endIT_EEE6invokeINS1_15_member_result_ENS1_19_non_member_result_EE6invokeISC_EEOSC_, symObjAddr: 0x2C0, symBinAddr: 0x1000042F0, symSize: 0x30 }
  - { offsetInCU: 0xAFC3, offset: 0xAFC3, size: 0x8, addend: 0x0, symName: __ZNK6ranges7next_fnclINSt3__111__wrap_iterIPiEES5_Lb1ELi0EEET_S6_T0_, symObjAddr: 0x2F0, symBinAddr: 0x100004320, symSize: 0x50 }
  - { offsetInCU: 0xB02E, offset: 0xB02E, size: 0x8, addend: 0x0, symName: __ZNK6ranges10advance_fnclINSt3__111__wrap_iterIPiEES5_Lb1ELi0EEEvRT_T0_, symObjAddr: 0x634, symBinAddr: 0x100004664, symSize: 0x24 }
  - { offsetInCU: 0xB092, offset: 0xB092, size: 0x8, addend: 0x0, symName: __ZNKSt3__111__wrap_iterIPiE4baseB7v160006Ev, symObjAddr: 0x6A0, symBinAddr: 0x1000046D0, symSize: 0x18 }
  - { offsetInCU: 0xB0BD, offset: 0xB0BD, size: 0x8, addend: 0x0, symName: __ZNK6ranges15partial_sort_fnclINSt3__111__wrap_iterIPiEES5_NS2_17reference_wrapperINS_4lessEEENS6_INS_8identityEEELb1ELi0ELi0ELi0EEET_SB_SB_T0_T1_T2_, symObjAddr: 0x6C0, symBinAddr: 0x1000046F0, symSize: 0x248 }
  - { offsetInCU: 0xB1D2, offset: 0xB1D2, size: 0x8, addend: 0x0, symName: __ZNK6ranges12make_heap_fnclINSt3__111__wrap_iterIPiEES5_NS_17reference_wrapperINS_4lessEEENS6_INS_8identityEEELb1ELi0ELi0ELi0EEET_SB_T0_T1_T2_, symObjAddr: 0xD08, symBinAddr: 0x100004D38, symSize: 0x13C }
  - { offsetInCU: 0xB2A6, offset: 0xB2A6, size: 0x8, addend: 0x0, symName: __ZNK6ranges6ref_fnclINS_4lessEEENS_17reference_wrapperIT_EENSt3__117reference_wrapperIS4_EE, symObjAddr: 0xE44, symBinAddr: 0x100004E74, symSize: 0x3C }
  - { offsetInCU: 0xB2E3, offset: 0xB2E3, size: 0x8, addend: 0x0, symName: __ZNK6ranges6ref_fnclINS_8identityEEENS_17reference_wrapperIT_EENSt3__117reference_wrapperIS4_EE, symObjAddr: 0xE80, symBinAddr: 0x100004EB0, symSize: 0x3C }
  - { offsetInCU: 0xB32A, offset: 0xB32A, size: 0x8, addend: 0x0, symName: __ZNK6ranges9invoke_fnclIRNSt3__117reference_wrapperINS_4lessEEEJRiS7_EEEDTclcvT_fp_spcvT0_fp0_EEOS8_DpOS9_, symObjAddr: 0xEBC, symBinAddr: 0x100004EEC, symSize: 0x3C }
  - { offsetInCU: 0xB398, offset: 0xB398, size: 0x8, addend: 0x0, symName: __ZNK6ranges9invoke_fnclIRNSt3__117reference_wrapperINS_8identityEEEJRiEEEDTclcvT_fp_spcvT0_fp0_EEOS8_DpOS9_, symObjAddr: 0xEF8, symBinAddr: 0x100004F28, symSize: 0x30 }
  - { offsetInCU: 0xB3EE, offset: 0xB3EE, size: 0x8, addend: 0x0, symName: __ZNKSt3__111__wrap_iterIPiEdeB7v160006Ev, symObjAddr: 0xF28, symBinAddr: 0x100004F58, symSize: 0x18 }
  - { offsetInCU: 0xB419, offset: 0xB419, size: 0x8, addend: 0x0, symName: __ZNK6ranges11_iter_swap_2fnclIRNSt3__111__wrap_iterIPiEES7_EENS_6detail9enable_ifIXaant29is_adl_indirectly_swappable_vIT_T0_Esr17is_swappable_withIDTdeclsr3stdE7declvalIRSA_EEEDTdeclsr3stdE7declvalIRSB_EEEEE5valueEE6invokeIvEEOSA_OSB_, symObjAddr: 0xF40, symBinAddr: 0x100004F70, symSize: 0x4C }
  - { offsetInCU: 0xB472, offset: 0xB472, size: 0x8, addend: 0x0, symName: __ZNK6ranges6detail14sift_down_n_fnclINSt3__111__wrap_iterIPiEENS_17reference_wrapperINS_4lessEEENS7_INS_8identityEEEEEvT_NS_20incrementable_traitsINS3_9remove_cvINS3_16remove_referenceISC_E4typeEE4typeEE15difference_typeESC_T0_T1_, symObjAddr: 0xF8C, symBinAddr: 0x100004FBC, symSize: 0x38C }
  - { offsetInCU: 0xB524, offset: 0xB524, size: 0x8, addend: 0x0, symName: __ZNSt3__111__wrap_iterIPiEppB7v160006Ev, symObjAddr: 0x1318, symBinAddr: 0x100005348, symSize: 0x20 }
  - { offsetInCU: 0xB54F, offset: 0xB54F, size: 0x8, addend: 0x0, symName: __ZNK6ranges12sort_heap_fnclINSt3__111__wrap_iterIPiEES5_NS_17reference_wrapperINS_4lessEEENS6_INS_8identityEEELb1ELi0ELi0ELi0EEET_SB_T0_T1_T2_, symObjAddr: 0x1338, symBinAddr: 0x100005368, symSize: 0x104 }
  - { offsetInCU: 0xB628, offset: 0xB628, size: 0x8, addend: 0x0, symName: __ZNK6ranges16iter_distance_fnclINSt3__111__wrap_iterIPiEES5_Lb1ELi0ELi0EEENS_20incrementable_traitsINS2_9remove_cvINS2_16remove_referenceIT_E4typeEE4typeEE15difference_typeES9_T0_, symObjAddr: 0x143C, symBinAddr: 0x10000546C, symSize: 0x40 }
  - { offsetInCU: 0xB694, offset: 0xB694, size: 0x8, addend: 0x0, symName: __ZNKSt3__111__wrap_iterIPiEplB7v160006El, symObjAddr: 0x147C, symBinAddr: 0x1000054AC, symSize: 0x3C }
  - { offsetInCU: 0xB6D6, offset: 0xB6D6, size: 0x8, addend: 0x0, symName: __ZNK6ranges6ref_fnclINS_4lessEEENS_17reference_wrapperIT_EES5_, symObjAddr: 0x14B8, symBinAddr: 0x1000054E8, symSize: 0x20 }
  - { offsetInCU: 0xB713, offset: 0xB713, size: 0x8, addend: 0x0, symName: __ZNK6ranges6ref_fnclINS_8identityEEENS_17reference_wrapperIT_EES5_, symObjAddr: 0x14D8, symBinAddr: 0x100005508, symSize: 0x20 }
  - { offsetInCU: 0xB750, offset: 0xB750, size: 0x8, addend: 0x0, symName: __ZN6ranges16iter_distance_fn6impl_iINSt3__111__wrap_iterIPiEES5_EENS_20incrementable_traitsINS2_9remove_cvINS2_16remove_referenceIT_E4typeEE4typeEE15difference_typeES9_T0_NS_18sized_sentinel_tagE, symObjAddr: 0x14F8, symBinAddr: 0x100005528, symSize: 0x38 }
  - { offsetInCU: 0xB7AF, offset: 0xB7AF, size: 0x8, addend: 0x0, symName: __ZNSt3__111__wrap_iterIPiEpLB7v160006El, symObjAddr: 0x1530, symBinAddr: 0x100005560, symSize: 0x28 }
  - { offsetInCU: 0xB7E3, offset: 0xB7E3, size: 0x8, addend: 0x0, symName: __ZNKSt3__117reference_wrapperIN6ranges4lessEE3getB7v160006Ev, symObjAddr: 0x1558, symBinAddr: 0x100005588, symSize: 0x18 }
  - { offsetInCU: 0xB809, offset: 0xB809, size: 0x8, addend: 0x0, symName: __ZN6ranges17reference_wrapperINS_4lessEEC1IRS1_Lb1ELi0ELi0EEEOT_, symObjAddr: 0x1570, symBinAddr: 0x1000055A0, symSize: 0x34 }
  - { offsetInCU: 0xB860, offset: 0xB860, size: 0x8, addend: 0x0, symName: __ZN6ranges17reference_wrapperINS_4lessEEC2IRS1_Lb1ELi0ELi0EEEOT_, symObjAddr: 0x15A4, symBinAddr: 0x1000055D4, symSize: 0x34 }
  - { offsetInCU: 0xB8B7, offset: 0xB8B7, size: 0x8, addend: 0x0, symName: __ZN6ranges6detail18reference_wrapper_INS_4lessEEC2ERS2_, symObjAddr: 0x15D8, symBinAddr: 0x100005608, symSize: 0x20 }
  - { offsetInCU: 0xB8EF, offset: 0xB8EF, size: 0x8, addend: 0x0, symName: __ZNKSt3__117reference_wrapperIN6ranges8identityEE3getB7v160006Ev, symObjAddr: 0x15F8, symBinAddr: 0x100005628, symSize: 0x18 }
  - { offsetInCU: 0xB915, offset: 0xB915, size: 0x8, addend: 0x0, symName: __ZN6ranges17reference_wrapperINS_8identityEEC1IRS1_Lb1ELi0ELi0EEEOT_, symObjAddr: 0x1610, symBinAddr: 0x100005640, symSize: 0x34 }
  - { offsetInCU: 0xB96C, offset: 0xB96C, size: 0x8, addend: 0x0, symName: __ZN6ranges17reference_wrapperINS_8identityEEC2IRS1_Lb1ELi0ELi0EEEOT_, symObjAddr: 0x1644, symBinAddr: 0x100005674, symSize: 0x34 }
  - { offsetInCU: 0xB9C3, offset: 0xB9C3, size: 0x8, addend: 0x0, symName: __ZN6ranges6detail18reference_wrapper_INS_8identityEEC2ERS2_, symObjAddr: 0x1678, symBinAddr: 0x1000056A8, symSize: 0x20 }
  - { offsetInCU: 0xB9FB, offset: 0xB9FB, size: 0x8, addend: 0x0, symName: __ZNKSt3__117reference_wrapperIN6ranges4lessEEclB7v160006IJRiS5_EEENS_11__invoke_ofIRS2_JDpT_EE4typeEDpOS8_, symObjAddr: 0x1698, symBinAddr: 0x1000056C8, symSize: 0x3C }
  - { offsetInCU: 0xBA57, offset: 0xBA57, size: 0x8, addend: 0x0, symName: __ZNK6ranges4lessclIRiS2_Lb1ELi0EEEbOT_OT0_, symObjAddr: 0x170C, symBinAddr: 0x10000573C, symSize: 0x34 }
  - { offsetInCU: 0xBABB, offset: 0xBABB, size: 0x8, addend: 0x0, symName: __ZNKSt3__117reference_wrapperIN6ranges8identityEEclB7v160006IJRiEEENS_11__invoke_ofIRS2_JDpT_EE4typeEDpOS8_, symObjAddr: 0x1740, symBinAddr: 0x100005770, symSize: 0x30 }
  - { offsetInCU: 0xBB04, offset: 0xBB04, size: 0x8, addend: 0x0, symName: __ZNK6ranges8identityclIRiEEOT_S4_, symObjAddr: 0x179C, symBinAddr: 0x1000057CC, symSize: 0x18 }
  - { offsetInCU: 0xBB4B, offset: 0xBB4B, size: 0x8, addend: 0x0, symName: __ZNK8concepts15adl_swap_detail7swap_fnclIiEEN4meta6detail4_if_INS3_4listIJNSt3__117integral_constantIbXaant18is_adl_swappable_vIRT_Esr6detailE12is_movable_vIS9_EEEEEEEbE4typeESA_SA_, symObjAddr: 0x17B4, symBinAddr: 0x1000057E4, symSize: 0x38 }
  - { offsetInCU: 0xBB9B, offset: 0xBB9B, size: 0x8, addend: 0x0, symName: __ZNK6ranges9invoke_fnclIRNS_17reference_wrapperINS_4lessEEEJRiS6_EEEDTclcvT_fp_spcvT0_fp0_EEOS7_DpOS8_, symObjAddr: 0x1820, symBinAddr: 0x100005850, symSize: 0x3C }
  - { offsetInCU: 0xBC09, offset: 0xBC09, size: 0x8, addend: 0x0, symName: __ZNK6ranges9invoke_fnclIRNS_17reference_wrapperINS_8identityEEEJRiEEEDTclcvT_fp_spcvT0_fp0_EEOS7_DpOS8_, symObjAddr: 0x185C, symBinAddr: 0x10000588C, symSize: 0x30 }
  - { offsetInCU: 0xBC69, offset: 0xBC69, size: 0x8, addend: 0x0, symName: __ZNK6ranges11_iter_move_2fnclIRNSt3__111__wrap_iterIPiEEvRiEEDTscN4meta6detail4_if_INS9_4listIJNS3_17integral_constantIbXsr3std12is_referenceIT1_EE5valueEEEONS3_16remove_referenceISE_E4typeENS3_5decayISE_E4typeEEEEbE4typeEclL_ZNS_3aux4moveEEdefp_EEOT_, symObjAddr: 0x188C, symBinAddr: 0x1000058BC, symSize: 0x38 }
  - { offsetInCU: 0xBCB0, offset: 0xBCB0, size: 0x8, addend: 0x0, symName: __ZNK6ranges17reference_wrapperINS_4lessEEclIJRiS4_EEEDTclL_ZNS_6invokeEEscS1_dedtdefpT2t_spscT_fp_EEDpOS5_, symObjAddr: 0x18C4, symBinAddr: 0x1000058F4, symSize: 0x44 }
  - { offsetInCU: 0xBD02, offset: 0xBD02, size: 0x8, addend: 0x0, symName: __ZNK6ranges9invoke_fnclIRNS_4lessEJRiS4_EEEDTclcvT_fp_spcvT0_fp0_EEOS5_DpOS6_, symObjAddr: 0x1908, symBinAddr: 0x100005938, symSize: 0x3C }
  - { offsetInCU: 0xBD6B, offset: 0xBD6B, size: 0x8, addend: 0x0, symName: __ZNK6ranges17reference_wrapperINS_8identityEEclIJRiEEEDTclL_ZNS_6invokeEEscS1_dedtdefpT2t_spscT_fp_EEDpOS5_, symObjAddr: 0x1944, symBinAddr: 0x100005974, symSize: 0x38 }
  - { offsetInCU: 0xBDAA, offset: 0xBDAA, size: 0x8, addend: 0x0, symName: __ZNK6ranges9invoke_fnclIRNS_8identityEJRiEEEDTclcvT_fp_spcvT0_fp0_EEOS5_DpOS6_, symObjAddr: 0x197C, symBinAddr: 0x1000059AC, symSize: 0x30 }
  - { offsetInCU: 0xBE0A, offset: 0xBE0A, size: 0x8, addend: 0x0, symName: __ZNK6ranges3aux7move_fnclIRiEEONSt3__116remove_referenceIT_E4typeEOS6_, symObjAddr: 0x19AC, symBinAddr: 0x1000059DC, symSize: 0x18 }
  - { offsetInCU: 0xBE4C, offset: 0xBE4C, size: 0x8, addend: 0x0, symName: __ZNK6ranges6detail13pop_heap_n_fnclINSt3__111__wrap_iterIPiEENS_17reference_wrapperINS_4lessEEENS7_INS_8identityEEELb1ELi0ELi0EEEvT_NS_20incrementable_traitsINS3_9remove_cvINS3_16remove_referenceISC_E4typeEE4typeEE15difference_typeET0_T1_, symObjAddr: 0x19C4, symBinAddr: 0x1000059F4, symSize: 0xB4 }
  - { offsetInCU: 0xBEE4, offset: 0xBEE4, size: 0x8, addend: 0x0, symName: __ZNK6ranges11_iter_swap_2fnclIRNSt3__111__wrap_iterIPiEES6_EENS_6detail9enable_ifIXaant29is_adl_indirectly_swappable_vIT_T0_Esr17is_swappable_withIDTdeclsr3stdE7declvalIRSA_EEEDTdeclsr3stdE7declvalIRSB_EEEEE5valueEE6invokeIvEEOSA_OSB_, symObjAddr: 0x1A78, symBinAddr: 0x100005AA8, symSize: 0x4C }
  - { offsetInCU: 0xBF3D, offset: 0xBF3D, size: 0x8, addend: 0x0, symName: __ZNSt3__117reference_wrapperIN6ranges4lessEEC1B7v160006IRS2_vEEOT_, symObjAddr: 0x1AC4, symBinAddr: 0x100005AF4, symSize: 0x34 }
  - { offsetInCU: 0xBF7F, offset: 0xBF7F, size: 0x8, addend: 0x0, symName: __ZNSt3__117reference_wrapperIN6ranges4lessEEC2B7v160006IRS2_vEEOT_, symObjAddr: 0x1AF8, symBinAddr: 0x100005B28, symSize: 0x28 }
  - { offsetInCU: 0xBFE2, offset: 0xBFE2, size: 0x8, addend: 0x0, symName: __ZNSt3__117reference_wrapperIN6ranges8identityEEC1B7v160006IRS2_vEEOT_, symObjAddr: 0x1B20, symBinAddr: 0x100005B50, symSize: 0x34 }
  - { offsetInCU: 0xC024, offset: 0xC024, size: 0x8, addend: 0x0, symName: __ZNSt3__117reference_wrapperIN6ranges8identityEEC2B7v160006IRS2_vEEOT_, symObjAddr: 0x1B54, symBinAddr: 0x100005B84, symSize: 0x28 }
  - { offsetInCU: 0xC087, offset: 0xC087, size: 0x8, addend: 0x0, symName: __ZNK6ranges7prev_fnclINSt3__111__wrap_iterIPiEELb1ELi0EEET_S6_, symObjAddr: 0x1B7C, symBinAddr: 0x100005BAC, symSize: 0x38 }
  - { offsetInCU: 0xC0D5, offset: 0xC0D5, size: 0x8, addend: 0x0, symName: __ZNSt3__111__wrap_iterIPiEmmB7v160006Ev, symObjAddr: 0x1BB4, symBinAddr: 0x100005BE4, symSize: 0x20 }
  - { offsetInCU: 0xC0FB, offset: 0xC0FB, size: 0x8, addend: 0x0, symName: __ZNK6ranges7next_fnclINSt3__111__wrap_iterIPiEELb1ELi0EEET_S6_, symObjAddr: 0x1D50, symBinAddr: 0x100005D80, symSize: 0x38 }
  - { offsetInCU: 0xC14E, offset: 0xC14E, size: 0x8, addend: 0x0, symName: __ZNK6ranges16move_backward_fnclINSt3__111__wrap_iterIPiEES5_S5_Lb1ELi0ELi0ELi0ELi0EEENS_6detail13in_out_resultIT_T1_EES8_T0_S9_, symObjAddr: 0x1EC8, symBinAddr: 0x100005EF8, symSize: 0xC0 }
  - { offsetInCU: 0xC1F7, offset: 0xC1F7, size: 0x8, addend: 0x0, symName: __ZNSt3__16vectorIiNS_9allocatorIiEEE5beginB7v160006Ev, symObjAddr: 0x2090, symBinAddr: 0x1000060C0, symSize: 0x30 }
  - { offsetInCU: 0xC21F, offset: 0xC21F, size: 0x8, addend: 0x0, symName: __ZNSt3__16vectorIiNS_9allocatorIiEEE11__make_iterB7v160006EPi, symObjAddr: 0x20C0, symBinAddr: 0x1000060F0, symSize: 0x34 }
  - { offsetInCU: 0xC254, offset: 0xC254, size: 0x8, addend: 0x0, symName: __ZNSt3__111__wrap_iterIPiEC1B7v160006EPKvS1_, symObjAddr: 0x20F4, symBinAddr: 0x100006124, symSize: 0x3C }
  - { offsetInCU: 0xC29A, offset: 0xC29A, size: 0x8, addend: 0x0, symName: __ZNSt3__111__wrap_iterIPiEC2B7v160006EPKvS1_, symObjAddr: 0x2130, symBinAddr: 0x100006160, symSize: 0x24 }
  - { offsetInCU: 0xC2E0, offset: 0xC2E0, size: 0x8, addend: 0x0, symName: __ZNSt3__16vectorIiNS_9allocatorIiEEE3endB7v160006Ev, symObjAddr: 0x2154, symBinAddr: 0x100006184, symSize: 0x30 }
  - { offsetInCU: 0xC308, offset: 0xC308, size: 0x8, addend: 0x0, symName: __ZNSt3__16vectorIiNS_9allocatorIiEEEC2B7v160006ESt16initializer_listIiE, symObjAddr: 0x2184, symBinAddr: 0x1000061B4, symSize: 0x124 }
  - { offsetInCU: 0xC364, offset: 0xC364, size: 0x8, addend: 0x0, symName: __ZNSt3__117__compressed_pairIPiNS_9allocatorIiEEEC1B7v160006IDnNS_18__default_init_tagEEEOT_OT0_, symObjAddr: 0x22A8, symBinAddr: 0x1000062D8, symSize: 0x3C }
  - { offsetInCU: 0xC3BC, offset: 0xC3BC, size: 0x8, addend: 0x0, symName: __ZNSt3__16vectorIiNS_9allocatorIiEEE16__destroy_vectorC1ERS3_, symObjAddr: 0x2324, symBinAddr: 0x100006354, symSize: 0x34 }
  - { offsetInCU: 0xC3F5, offset: 0xC3F5, size: 0x8, addend: 0x0, symName: __ZNKSt16initializer_listIiE4sizeB7v160006Ev, symObjAddr: 0x2368, symBinAddr: 0x100006398, symSize: 0x18 }
  - { offsetInCU: 0xC41B, offset: 0xC41B, size: 0x8, addend: 0x0, symName: __ZNSt3__16vectorIiNS_9allocatorIiEEE11__vallocateB7v160006Em, symObjAddr: 0x2380, symBinAddr: 0x1000063B0, symSize: 0xAC }
  - { offsetInCU: 0xC45F, offset: 0xC45F, size: 0x8, addend: 0x0, symName: __ZNSt3__16vectorIiNS_9allocatorIiEEE18__construct_at_endIPKiLi0EEEvT_S7_m, symObjAddr: 0x242C, symBinAddr: 0x10000645C, symSize: 0x8C }
  - { offsetInCU: 0xC4D2, offset: 0xC4D2, size: 0x8, addend: 0x0, symName: __ZNKSt16initializer_listIiE5beginB7v160006Ev, symObjAddr: 0x24B8, symBinAddr: 0x1000064E8, symSize: 0x18 }
  - { offsetInCU: 0xC4F8, offset: 0xC4F8, size: 0x8, addend: 0x0, symName: __ZNKSt16initializer_listIiE3endB7v160006Ev, symObjAddr: 0x24D0, symBinAddr: 0x100006500, symSize: 0x20 }
  - { offsetInCU: 0xC51E, offset: 0xC51E, size: 0x8, addend: 0x0, symName: __ZNSt3__128__exception_guard_exceptionsINS_6vectorIiNS_9allocatorIiEEE16__destroy_vectorEE10__completeB7v160006Ev, symObjAddr: 0x24F0, symBinAddr: 0x100006520, symSize: 0x1C }
  - { offsetInCU: 0xC544, offset: 0xC544, size: 0x8, addend: 0x0, symName: __ZNSt3__128__exception_guard_exceptionsINS_6vectorIiNS_9allocatorIiEEE16__destroy_vectorEED1B7v160006Ev, symObjAddr: 0x250C, symBinAddr: 0x10000653C, symSize: 0x2C }
  - { offsetInCU: 0xC56E, offset: 0xC56E, size: 0x8, addend: 0x0, symName: __ZNSt3__117__compressed_pairIPiNS_9allocatorIiEEEC2B7v160006IDnNS_18__default_init_tagEEEOT_OT0_, symObjAddr: 0x2538, symBinAddr: 0x100006568, symSize: 0x40 }
  - { offsetInCU: 0xC5C6, offset: 0xC5C6, size: 0x8, addend: 0x0, symName: __ZNSt3__122__compressed_pair_elemIPiLi0ELb0EEC2B7v160006IDnvEEOT_, symObjAddr: 0x2578, symBinAddr: 0x1000065A8, symSize: 0x1C }
  - { offsetInCU: 0xC608, offset: 0xC608, size: 0x8, addend: 0x0, symName: __ZNSt3__122__compressed_pair_elemINS_9allocatorIiEELi1ELb1EEC2B7v160006ENS_18__default_init_tagE, symObjAddr: 0x2594, symBinAddr: 0x1000065C4, symSize: 0x2C }
  - { offsetInCU: 0xC63D, offset: 0xC63D, size: 0x8, addend: 0x0, symName: __ZNSt3__19allocatorIiEC2B7v160006Ev, symObjAddr: 0x25C0, symBinAddr: 0x1000065F0, symSize: 0x2C }
  - { offsetInCU: 0xC667, offset: 0xC667, size: 0x8, addend: 0x0, symName: __ZNSt3__116__non_trivial_ifILb1ENS_9allocatorIiEEEC2B7v160006Ev, symObjAddr: 0x25EC, symBinAddr: 0x10000661C, symSize: 0x14 }
  - { offsetInCU: 0xC691, offset: 0xC691, size: 0x8, addend: 0x0, symName: __ZNSt3__128__exception_guard_exceptionsINS_6vectorIiNS_9allocatorIiEEE16__destroy_vectorEEC1B7v160006ES5_, symObjAddr: 0x2600, symBinAddr: 0x100006630, symSize: 0x34 }
  - { offsetInCU: 0xC6C9, offset: 0xC6C9, size: 0x8, addend: 0x0, symName: __ZNSt3__128__exception_guard_exceptionsINS_6vectorIiNS_9allocatorIiEEE16__destroy_vectorEEC2B7v160006ES5_, symObjAddr: 0x2634, symBinAddr: 0x100006664, symSize: 0x24 }
  - { offsetInCU: 0xC701, offset: 0xC701, size: 0x8, addend: 0x0, symName: __ZNSt3__16vectorIiNS_9allocatorIiEEE16__destroy_vectorC2ERS3_, symObjAddr: 0x2658, symBinAddr: 0x100006688, symSize: 0x20 }
  - { offsetInCU: 0xC73A, offset: 0xC73A, size: 0x8, addend: 0x0, symName: __ZNKSt3__16vectorIiNS_9allocatorIiEEE8max_sizeEv, symObjAddr: 0x2678, symBinAddr: 0x1000066A8, symSize: 0x60 }
  - { offsetInCU: 0xC762, offset: 0xC762, size: 0x8, addend: 0x0, symName: __ZNKSt3__16vectorIiNS_9allocatorIiEEE20__throw_length_errorB7v160006Ev, symObjAddr: 0x26D8, symBinAddr: 0x100006708, symSize: 0x1C }
  - { offsetInCU: 0xC788, offset: 0xC788, size: 0x8, addend: 0x0, symName: __ZNSt3__16vectorIiNS_9allocatorIiEEE7__allocB7v160006Ev, symObjAddr: 0x2734, symBinAddr: 0x100006764, symSize: 0x28 }
  - { offsetInCU: 0xC7AE, offset: 0xC7AE, size: 0x8, addend: 0x0, symName: __ZNSt3__16vectorIiNS_9allocatorIiEEE9__end_capB7v160006Ev, symObjAddr: 0x275C, symBinAddr: 0x10000678C, symSize: 0x28 }
  - { offsetInCU: 0xC7D4, offset: 0xC7D4, size: 0x8, addend: 0x0, symName: __ZNKSt3__16vectorIiNS_9allocatorIiEEE14__annotate_newB7v160006Em, symObjAddr: 0x2784, symBinAddr: 0x1000067B4, symSize: 0xAC }
  - { offsetInCU: 0xC813, offset: 0xC813, size: 0x8, addend: 0x0, symName: __ZNSt3__116allocator_traitsINS_9allocatorIiEEE8max_sizeB7v160006IS2_vEEmRKS2_, symObjAddr: 0x285C, symBinAddr: 0x10000688C, symSize: 0x24 }
  - { offsetInCU: 0xC841, offset: 0xC841, size: 0x8, addend: 0x0, symName: __ZNKSt3__16vectorIiNS_9allocatorIiEEE7__allocB7v160006Ev, symObjAddr: 0x2880, symBinAddr: 0x1000068B0, symSize: 0x28 }
  - { offsetInCU: 0xC867, offset: 0xC867, size: 0x8, addend: 0x0, symName: __ZNSt3__114numeric_limitsIlE3maxB7v160006Ev, symObjAddr: 0x28A8, symBinAddr: 0x1000068D8, symSize: 0x14 }
  - { offsetInCU: 0xC88F, offset: 0xC88F, size: 0x8, addend: 0x0, symName: __ZNKSt3__16__lessImmEclB7v160006ERKmS3_, symObjAddr: 0x291C, symBinAddr: 0x10000694C, symSize: 0x34 }
  - { offsetInCU: 0xC8D1, offset: 0xC8D1, size: 0x8, addend: 0x0, symName: __ZNKSt3__19allocatorIiE8max_sizeB7v160006Ev, symObjAddr: 0x2950, symBinAddr: 0x100006980, symSize: 0x14 }
  - { offsetInCU: 0xC8F7, offset: 0xC8F7, size: 0x8, addend: 0x0, symName: __ZNKSt3__117__compressed_pairIPiNS_9allocatorIiEEE6secondB7v160006Ev, symObjAddr: 0x2964, symBinAddr: 0x100006994, symSize: 0x24 }
  - { offsetInCU: 0xC91D, offset: 0xC91D, size: 0x8, addend: 0x0, symName: __ZNKSt3__122__compressed_pair_elemINS_9allocatorIiEELi1ELb1EE5__getB7v160006Ev, symObjAddr: 0x2988, symBinAddr: 0x1000069B8, symSize: 0x14 }
  - { offsetInCU: 0xC943, offset: 0xC943, size: 0x8, addend: 0x0, symName: __ZNSt3__123__libcpp_numeric_limitsIlLb1EE3maxB7v160006Ev, symObjAddr: 0x299C, symBinAddr: 0x1000069CC, symSize: 0x8 }
  - { offsetInCU: 0xC957, offset: 0xC957, size: 0x8, addend: 0x0, symName: __ZNSt12length_errorC1B7v160006EPKc, symObjAddr: 0x2A08, symBinAddr: 0x100006A38, symSize: 0x34 }
  - { offsetInCU: 0xC98F, offset: 0xC98F, size: 0x8, addend: 0x0, symName: __ZNSt12length_errorC2B7v160006EPKc, symObjAddr: 0x2A3C, symBinAddr: 0x100006A6C, symSize: 0x4C }
  - { offsetInCU: 0xC9C7, offset: 0xC9C7, size: 0x8, addend: 0x0, symName: __ZNSt3__19allocatorIiE8allocateB7v160006Em, symObjAddr: 0x2A88, symBinAddr: 0x100006AB8, symSize: 0x58 }
  - { offsetInCU: 0xC9FB, offset: 0xC9FB, size: 0x8, addend: 0x0, symName: __ZNSt3__117__compressed_pairIPiNS_9allocatorIiEEE6secondB7v160006Ev, symObjAddr: 0x2BE4, symBinAddr: 0x100006C14, symSize: 0x24 }
  - { offsetInCU: 0xCA21, offset: 0xCA21, size: 0x8, addend: 0x0, symName: __ZNSt3__122__compressed_pair_elemINS_9allocatorIiEELi1ELb1EE5__getB7v160006Ev, symObjAddr: 0x2C08, symBinAddr: 0x100006C38, symSize: 0x14 }
  - { offsetInCU: 0xCA47, offset: 0xCA47, size: 0x8, addend: 0x0, symName: __ZNSt3__117__compressed_pairIPiNS_9allocatorIiEEE5firstB7v160006Ev, symObjAddr: 0x2C1C, symBinAddr: 0x100006C4C, symSize: 0x24 }
  - { offsetInCU: 0xCA6D, offset: 0xCA6D, size: 0x8, addend: 0x0, symName: __ZNSt3__122__compressed_pair_elemIPiLi0ELb0EE5__getB7v160006Ev, symObjAddr: 0x2C40, symBinAddr: 0x100006C70, symSize: 0x14 }
  - { offsetInCU: 0xCA93, offset: 0xCA93, size: 0x8, addend: 0x0, symName: __ZNKSt3__16vectorIiNS_9allocatorIiEEE31__annotate_contiguous_containerB7v160006EPKvS5_S5_S5_, symObjAddr: 0x2C54, symBinAddr: 0x100006C84, symSize: 0x20 }
  - { offsetInCU: 0xCAE5, offset: 0xCAE5, size: 0x8, addend: 0x0, symName: __ZNKSt3__16vectorIiNS_9allocatorIiEEE4dataB7v160006Ev, symObjAddr: 0x2C74, symBinAddr: 0x100006CA4, symSize: 0x28 }
  - { offsetInCU: 0xCB0B, offset: 0xCB0B, size: 0x8, addend: 0x0, symName: __ZNKSt3__16vectorIiNS_9allocatorIiEEE8capacityB7v160006Ev, symObjAddr: 0x2C9C, symBinAddr: 0x100006CCC, symSize: 0x40 }
  - { offsetInCU: 0xCB31, offset: 0xCB31, size: 0x8, addend: 0x0, symName: __ZNKSt3__16vectorIiNS_9allocatorIiEEE9__end_capB7v160006Ev, symObjAddr: 0x2CF0, symBinAddr: 0x100006D20, symSize: 0x28 }
  - { offsetInCU: 0xCB57, offset: 0xCB57, size: 0x8, addend: 0x0, symName: __ZNKSt3__117__compressed_pairIPiNS_9allocatorIiEEE5firstB7v160006Ev, symObjAddr: 0x2D18, symBinAddr: 0x100006D48, symSize: 0x24 }
  - { offsetInCU: 0xCB7D, offset: 0xCB7D, size: 0x8, addend: 0x0, symName: __ZNKSt3__122__compressed_pair_elemIPiLi0ELb0EE5__getB7v160006Ev, symObjAddr: 0x2D3C, symBinAddr: 0x100006D6C, symSize: 0x14 }
  - { offsetInCU: 0xCBBC, offset: 0xCBBC, size: 0x8, addend: 0x0, symName: __ZNSt3__16vectorIiNS_9allocatorIiEEE21_ConstructTransactionC1B7v160006ERS3_m, symObjAddr: 0x2D50, symBinAddr: 0x100006D80, symSize: 0x3C }
  - { offsetInCU: 0xCC04, offset: 0xCC04, size: 0x8, addend: 0x0, symName: __ZNSt3__16vectorIiNS_9allocatorIiEEE21_ConstructTransactionD1B7v160006Ev, symObjAddr: 0x2DC4, symBinAddr: 0x100006DF4, symSize: 0x2C }
  - { offsetInCU: 0xCC2E, offset: 0xCC2E, size: 0x8, addend: 0x0, symName: __ZNSt3__16vectorIiNS_9allocatorIiEEE21_ConstructTransactionC2B7v160006ERS3_m, symObjAddr: 0x2DF0, symBinAddr: 0x100006E20, symSize: 0x44 }
  - { offsetInCU: 0xCC99, offset: 0xCC99, size: 0x8, addend: 0x0, symName: __ZNKSt3__114__copy_trivialclB7v160006IKiiLi0EEENS_4pairIPT_PT0_EES5_S5_S7_, symObjAddr: 0x3010, symBinAddr: 0x100007040, symSize: 0x48 }
  - { offsetInCU: 0xCD1F, offset: 0xCD1F, size: 0x8, addend: 0x0, symName: __ZNSt3__14pairIPKiS2_EC1B7v160006IS2_S2_LPv0EEEOT_OT0_, symObjAddr: 0x3178, symBinAddr: 0x1000071A8, symSize: 0x3C }
  - { offsetInCU: 0xCD7D, offset: 0xCD7D, size: 0x8, addend: 0x0, symName: __ZNSt3__14pairIPKiS2_EC2B7v160006IS2_S2_LPv0EEEOT_OT0_, symObjAddr: 0x31B4, symBinAddr: 0x1000071E4, symSize: 0x34 }
  - { offsetInCU: 0xCDDB, offset: 0xCDDB, size: 0x8, addend: 0x0, symName: __ZNSt3__118__unwrap_iter_implIPKiLb1EE8__unwrapB7v160006ES2_, symObjAddr: 0x31E8, symBinAddr: 0x100007218, symSize: 0x24 }
  - { offsetInCU: 0xCE08, offset: 0xCE08, size: 0x8, addend: 0x0, symName: __ZNSt3__14pairIPKiPiEC1B7v160006IRS2_S3_LPv0EEEOT_OT0_, symObjAddr: 0x32DC, symBinAddr: 0x10000730C, symSize: 0x3C }
  - { offsetInCU: 0xCE66, offset: 0xCE66, size: 0x8, addend: 0x0, symName: __ZNSt3__14pairIPKiPiEC2B7v160006IRS2_S3_LPv0EEEOT_OT0_, symObjAddr: 0x3318, symBinAddr: 0x100007348, symSize: 0x34 }
  - { offsetInCU: 0xCEC4, offset: 0xCEC4, size: 0x8, addend: 0x0, symName: __ZNSt3__118__unwrap_iter_implIPiLb1EE8__unwrapB7v160006ES1_, symObjAddr: 0x334C, symBinAddr: 0x10000737C, symSize: 0x24 }
  - { offsetInCU: 0xCEE7, offset: 0xCEE7, size: 0x8, addend: 0x0, symName: __ZNSt3__14pairIPKiPiEC1B7v160006IS2_S3_LPv0EEEOT_OT0_, symObjAddr: 0x3370, symBinAddr: 0x1000073A0, symSize: 0x3C }
  - { offsetInCU: 0xCF45, offset: 0xCF45, size: 0x8, addend: 0x0, symName: __ZNSt3__14pairIPKiPiEC2B7v160006IS2_S3_LPv0EEEOT_OT0_, symObjAddr: 0x33AC, symBinAddr: 0x1000073DC, symSize: 0x34 }
  - { offsetInCU: 0xCFA3, offset: 0xCFA3, size: 0x8, addend: 0x0, symName: __ZNSt3__118__unwrap_iter_implIPKiLb1EE8__rewrapB7v160006ES2_S2_, symObjAddr: 0x341C, symBinAddr: 0x10000744C, symSize: 0x50 }
  - { offsetInCU: 0xCFD4, offset: 0xCFD4, size: 0x8, addend: 0x0, symName: __ZNSt3__118__unwrap_iter_implIPiLb1EE8__rewrapB7v160006ES1_S1_, symObjAddr: 0x346C, symBinAddr: 0x10000749C, symSize: 0x50 }
  - { offsetInCU: 0xD005, offset: 0xD005, size: 0x8, addend: 0x0, symName: __ZNSt3__16vectorIiNS_9allocatorIiEEE21_ConstructTransactionD2B7v160006Ev, symObjAddr: 0x34BC, symBinAddr: 0x1000074EC, symSize: 0x20 }
  - { offsetInCU: 0xD02F, offset: 0xD02F, size: 0x8, addend: 0x0, symName: __ZNSt3__128__exception_guard_exceptionsINS_6vectorIiNS_9allocatorIiEEE16__destroy_vectorEED2B7v160006Ev, symObjAddr: 0x34DC, symBinAddr: 0x10000750C, symSize: 0x50 }
  - { offsetInCU: 0xD059, offset: 0xD059, size: 0x8, addend: 0x0, symName: __ZNSt3__16vectorIiNS_9allocatorIiEEE16__destroy_vectorclB7v160006Ev, symObjAddr: 0x352C, symBinAddr: 0x10000755C, symSize: 0x9C }
  - { offsetInCU: 0xD07F, offset: 0xD07F, size: 0x8, addend: 0x0, symName: __ZNKSt3__16vectorIiNS_9allocatorIiEEE17__annotate_deleteB7v160006Ev, symObjAddr: 0x35C8, symBinAddr: 0x1000075F8, symSize: 0xB8 }
  - { offsetInCU: 0xD0A5, offset: 0xD0A5, size: 0x8, addend: 0x0, symName: __ZNSt3__16vectorIiNS_9allocatorIiEEE7__clearB7v160006Ev, symObjAddr: 0x3690, symBinAddr: 0x1000076C0, symSize: 0x28 }
  - { offsetInCU: 0xD0CB, offset: 0xD0CB, size: 0x8, addend: 0x0, symName: __ZNSt3__116allocator_traitsINS_9allocatorIiEEE10deallocateB7v160006ERS2_Pim, symObjAddr: 0x36B8, symBinAddr: 0x1000076E8, symSize: 0x34 }
  - { offsetInCU: 0xD10D, offset: 0xD10D, size: 0x8, addend: 0x0, symName: __ZNKSt3__16vectorIiNS_9allocatorIiEEE4sizeB7v160006Ev, symObjAddr: 0x36EC, symBinAddr: 0x10000771C, symSize: 0x28 }
  - { offsetInCU: 0xD133, offset: 0xD133, size: 0x8, addend: 0x0, symName: __ZNSt3__16vectorIiNS_9allocatorIiEEE22__base_destruct_at_endB7v160006EPi, symObjAddr: 0x3714, symBinAddr: 0x100007744, symSize: 0x8C }
  - { offsetInCU: 0xD177, offset: 0xD177, size: 0x8, addend: 0x0, symName: __ZNSt3__116allocator_traitsINS_9allocatorIiEEE7destroyB7v160006IivEEvRS2_PT_, symObjAddr: 0x37A0, symBinAddr: 0x1000077D0, symSize: 0x2C }
  - { offsetInCU: 0xD1B4, offset: 0xD1B4, size: 0x8, addend: 0x0, symName: __ZNSt3__19allocatorIiE7destroyB7v160006EPi, symObjAddr: 0x37CC, symBinAddr: 0x1000077FC, symSize: 0x14 }
  - { offsetInCU: 0xD1E8, offset: 0xD1E8, size: 0x8, addend: 0x0, symName: __ZNSt3__19allocatorIiE10deallocateB7v160006EPim, symObjAddr: 0x37E0, symBinAddr: 0x100007810, symSize: 0x40 }
  - { offsetInCU: 0xD22A, offset: 0xD22A, size: 0x8, addend: 0x0, symName: __ZNSt3__16vectorIiNS_9allocatorIiEEED2B7v160006Ev, symObjAddr: 0x3928, symBinAddr: 0x100007958, symSize: 0x44 }
...
